; Function Attrs: mustprogress nounwind uwtable
define dso_local void @_ZNK4llvm14MCSectionXCOFF19printCsectDirectiveERNS_11raw_ostreamE(ptr nocapture noundef nonnull readonly align 8 dereferenceable(192) %0, ptr noundef nonnull align 8 dereferenceable(48) %1) local_unnamed_addr #0 align 2 {
  %3 = getelementptr inbounds nuw i8, ptr %1, i64 24
  %4 = load ptr, ptr %3, align 8
  %5 = getelementptr inbounds nuw i8, ptr %1, i64 32
  %6 = load ptr, ptr %5, align 8
  %7 = ptrtoint ptr %4 to i64
  %8 = ptrtoint ptr %6 to i64
  %9 = sub i64 %7, %8
  %10 = icmp ult i64 %9, 8
  br i1 %10, label %11, label %13

11:                                               ; preds = %2
  %12 = tail call noundef nonnull align 8 dereferenceable(48) ptr @_ZN4llvm11raw_ostream5writeEPKcm(ptr noundef nonnull align 8 dereferenceable(48) %1, ptr noundef nonnull @.str, i64 noundef 8) #8
  br label %_ZN4llvm11raw_ostreamlsEPKc.exit

13:                                               ; preds = %2
  store i64 2338603393890856457, ptr %6, align 1
  %14 = load ptr, ptr %5, align 8
  %15 = getelementptr inbounds i8, ptr %14, i64 8
  store ptr %15, ptr %5, align 8
  br label %_ZN4llvm11raw_ostreamlsEPKc.exit

_ZN4llvm11raw_ostreamlsEPKc.exit:                 ; preds = %11, %13
  %.0.i.i = phi ptr [ %12, %11 ], [ %1, %13 ]
  %16 = getelementptr inbounds nuw i8, ptr %0, i64 152
  %17 = load ptr, ptr %16, align 8
  %18 = getelementptr inbounds nuw i8, ptr %17, i64 8
  %19 = load i64, ptr %18, align 8
  %20 = and i64 %19, 1
  %.not.i = icmp eq i64 %20, 0
  br i1 %.not.i, label %_ZN4llvm11raw_ostreamlsENS_9StringRefE.exit, label %_ZNK4llvm8MCSymbol7getNameEv.exit

_ZNK4llvm8MCSymbol7getNameEv.exit:                ; preds = %_ZN4llvm11raw_ostreamlsEPKc.exit
  %21 = getelementptr inbounds i8, ptr %17, i64 -8
  %22 = load ptr, ptr %21, align 8
  %23 = getelementptr inbounds i8, ptr %22, i64 24
  %24 = load i64, ptr %22, align 8
  %25 = getelementptr inbounds nuw i8, ptr %.0.i.i, i64 24
  %26 = load ptr, ptr %25, align 8
  %27 = getelementptr inbounds nuw i8, ptr %.0.i.i, i64 32
  %28 = load ptr, ptr %27, align 8
  %29 = ptrtoint ptr %26 to i64
  %30 = ptrtoint ptr %28 to i64
  %31 = sub i64 %29, %30
  %32 = icmp ugt i64 %24, %31
  br i1 %32, label %33, label %35

33:                                               ; preds = %_ZNK4llvm8MCSymbol7getNameEv.exit
  %34 = tail call noundef nonnull align 8 dereferenceable(48) ptr @_ZN4llvm11raw_ostream5writeEPKcm(ptr noundef nonnull align 8 dereferenceable(48) %.0.i.i, ptr noundef nonnull %23, i64 noundef %24) #8
  br label %_ZN4llvm11raw_ostreamlsENS_9StringRefE.exit

35:                                               ; preds = %_ZNK4llvm8MCSymbol7getNameEv.exit
  %.not.i3 = icmp eq i64 %24, 0
  br i1 %.not.i3, label %_ZN4llvm11raw_ostreamlsENS_9StringRefE.exit, label %36

36:                                               ; preds = %35
  tail call void @llvm.memcpy.p0.p0.i64(ptr align 1 %28, ptr nonnull align 1 %23, i64 %24, i1 false)
  %37 = load ptr, ptr %27, align 8
  %38 = getelementptr inbounds i8, ptr %37, i64 %24
  store ptr %38, ptr %27, align 8
  br label %_ZN4llvm11raw_ostreamlsENS_9StringRefE.exit

_ZN4llvm11raw_ostreamlsENS_9StringRefE.exit:      ; preds = %_ZN4llvm11raw_ostreamlsEPKc.exit, %33, %35, %36
  %.0.i = phi ptr [ %34, %33 ], [ %.0.i.i, %36 ], [ %.0.i.i, %35 ], [ %.0.i.i, %_ZN4llvm11raw_ostreamlsEPKc.exit ]
  %39 = getelementptr inbounds nuw i8, ptr %.0.i, i64 24
  %40 = load ptr, ptr %39, align 8
  %41 = getelementptr inbounds nuw i8, ptr %.0.i, i64 32
  %42 = load ptr, ptr %41, align 8
  %43 = icmp eq ptr %40, %42
  br i1 %43, label %44, label %46

44:                                               ; preds = %_ZN4llvm11raw_ostreamlsENS_9StringRefE.exit
  %45 = tail call noundef nonnull align 8 dereferenceable(48) ptr @_ZN4llvm11raw_ostream5writeEPKcm(ptr noundef nonnull align 8 dereferenceable(48) %.0.i, ptr noundef nonnull @.str.1, i64 noundef 1) #8
  br label %_ZN4llvm11raw_ostreamlsEPKc.exit6

46:                                               ; preds = %_ZN4llvm11raw_ostreamlsENS_9StringRefE.exit
  store i8 44, ptr %42, align 1
  %47 = load ptr, ptr %41, align 8
  %48 = getelementptr inbounds i8, ptr %47, i64 1
  store ptr %48, ptr %41, align 8
  br label %_ZN4llvm11raw_ostreamlsEPKc.exit6

_ZN4llvm11raw_ostreamlsEPKc.exit6:                ; preds = %44, %46
  %.0.i.i5 = phi ptr [ %45, %44 ], [ %.0.i, %46 ]
  %49 = getelementptr inbounds nuw i8, ptr %0, i64 32
  %.sroa.0.0.copyload.i = load i8, ptr %49, align 8
  %50 = zext i8 %.sroa.0.0.copyload.i to i64
  %51 = tail call noundef nonnull align 8 dereferenceable(48) ptr @_ZN4llvm11raw_ostreamlsEm(ptr noundef nonnull align 8 dereferenceable(48) %.0.i.i5, i64 noundef %50) #8
  %52 = getelementptr inbounds nuw i8, ptr %51, i64 32
  %53 = load ptr, ptr %52, align 8
  %54 = getelementptr inbounds nuw i8, ptr %51, i64 24
  %55 = load ptr, ptr %54, align 8
  %.not.i7 = icmp ult ptr %53, %55
  br i1 %.not.i7, label %58, label %56

56:                                               ; preds = %_ZN4llvm11raw_ostreamlsEPKc.exit6
  %57 = tail call noundef nonnull align 8 dereferenceable(48) ptr @_ZN4llvm11raw_ostream5writeEh(ptr noundef nonnull align 8 dereferenceable(48) %51, i8 noundef zeroext 10) #8
  br label %_ZN4llvm11raw_ostreamlsEc.exit

58:                                               ; preds = %_ZN4llvm11raw_ostreamlsEPKc.exit6
  %59 = getelementptr inbounds i8, ptr %53, i64 1
  store ptr %59, ptr %52, align 8
  store i8 10, ptr %53, align 1
  br label %_ZN4llvm11raw_ostreamlsEc.exit

_ZN4llvm11raw_ostreamlsEc.exit:                   ; preds = %56, %58
  ret void
}